target datalayout = "e-m:e-p270:32:32-p271:32:32-p272:64:64-i64:64-i128:128-f80:128-n8:16:32:64-S128"
target triple = "x86_64-pc-linux-gnu"

; Function Attrs: inlinehint mustprogress nounwind uwtable
define internal noundef zeroext i1 @_ZN6icu_7712_GLOBAL__N_113civilLeapYearEi(i32 noundef %0) #4 {
  %2 = alloca i32, align 4
  store i32 %0, ptr %2, align 4, !tbaa !17
  %3 = load i32, ptr %2, align 4, !tbaa !17
  %4 = mul nsw i32 11, %3
  %5 = add nsw i32 14, %4
  %6 = srem i32 %5, 30
  %7 = icmp slt i32 %6, 11
  ret i1 %7
}

; Function Attrs: inlinehint mustprogress nounwind uwtable
define internal noundef signext i8 @_ZL9U_FAILURE10UErrorCode(i32 noundef %0) #4 {
  %2 = alloca i32, align 4
  store i32 %0, ptr %2, align 4, !tbaa !19
  %3 = load i32, ptr %2, align 4, !tbaa !19
  %4 = icmp sgt i32 %3, 0
  %5 = zext i1 %4 to i8
  ret i8 %5
}

; Function Attrs: mustprogress uwtable
define noundef i32 @_ZNK6icu_7720IslamicCivilCalendar19handleGetYearLengthEiR10UErrorCode(ptr noundef nonnull align 8 dereferenceable(192) %0, i32 noundef %1, ptr noundef nonnull align 4 dereferenceable(4) %2) unnamed_addr #1 align 2 {
  %4 = alloca i32, align 4
  %5 = alloca ptr, align 8
  %6 = alloca i32, align 4
  %7 = alloca ptr, align 8
  store ptr %0, ptr %5, align 8, !tbaa !43
  store i32 %1, ptr %6, align 4, !tbaa !17
  store ptr %2, ptr %7, align 8, !tbaa !12
  %8 = load ptr, ptr %7, align 8, !tbaa !12
  %9 = load i32, ptr %8, align 4, !tbaa !19
  %10 = call noundef signext i8 @_ZL9U_FAILURE10UErrorCode(i32 noundef %9)
  %11 = icmp ne i8 %10, 0
  br i1 %11, label %12, label %13

12:                                               ; preds = %3
  store i32 0, ptr %4, align 4
  br label %18

13:                                               ; preds = %3
  %14 = load i32, ptr %6, align 4, !tbaa !17
  %15 = call noundef zeroext i1 @_ZN6icu_7712_GLOBAL__N_113civilLeapYearEi(i32 noundef %14)
  %16 = select i1 %15, i32 1, i32 0
  %17 = add nsw i32 354, %16
  store i32 %17, ptr %4, align 4
  br label %18

18:                                               ; preds = %13, %12
  %19 = load i32, ptr %4, align 4
  ret i32 %19
}