; Function Attrs: mustprogress nofree norecurse nosync nounwind willreturn memory(argmem: read) uwtable
define noundef range(i32 0, 356) i32 @_ZNK6icu_7720IslamicCivilCalendar19handleGetYearLengthEiR10UErrorCode(ptr nonnull readnone align 8 captures(none) %0, i32 noundef %1, ptr noundef nonnull readonly align 4 captures(none) dereferenceable(4) %2) unnamed_addr #6 align 2 {
  %4 = load i32, ptr %2, align 4, !tbaa !9
  %5 = icmp slt i32 %4, 1
  br i1 %5, label %6, label %12

6:                                                ; preds = %3
  %7 = mul nsw i32 %1, 11
  %8 = add nsw i32 %7, 14
  %9 = srem i32 %8, 30
  %10 = icmp slt i32 %9, 11
  %11 = select i1 %10, i32 355, i32 354
  br label %12

12:                                               ; preds = %3, %6
  %.0 = phi i32 [ %11, %6 ], [ 0, %3 ]
  ret i32 %.0
}